; Function Attrs: mustprogress nounwind uwtable
define noundef nonnull align 8 dereferenceable(32) ptr @_ZN4LIEF2PE17DynamicRelocationaSEOS1_(ptr noundef nonnull returned align 8 dereferenceable(32) initializes((8, 24)) %0, ptr noundef nonnull align 8 captures(none) dereferenceable(32) %1) local_unnamed_addr #1 align 2 {
  %3 = getelementptr inbounds nuw i8, ptr %0, i64 8
  %4 = getelementptr inbounds nuw i8, ptr %1, i64 8
  tail call void @llvm.memcpy.p0.p0.i64(ptr noundef nonnull align 8 dereferenceable(16) %3, ptr noundef nonnull align 8 dereferenceable(16) %4, i64 16, i1 false)
  %5 = getelementptr inbounds nuw i8, ptr %0, i64 24
  %6 = getelementptr inbounds nuw i8, ptr %1, i64 24
  %7 = load ptr, ptr %6, align 8, !tbaa !21
  store ptr null, ptr %6, align 8, !tbaa !21
  %8 = load ptr, ptr %5, align 8, !tbaa !21
  store ptr %7, ptr %5, align 8, !tbaa !21
  %.not.i.i.i.i = icmp eq ptr %8, null
  br i1 %.not.i.i.i.i, label %_ZNSt10unique_ptrIN4LIEF2PE12DynamicFixupESt14default_deleteIS2_EEaSEOS5_.exit, label %_ZNKSt14default_deleteIN4LIEF2PE12DynamicFixupEEclEPS2_.exit.i.i.i.i

_ZNKSt14default_deleteIN4LIEF2PE12DynamicFixupEEclEPS2_.exit.i.i.i.i: ; preds = %2
  %9 = load ptr, ptr %8, align 8, !tbaa !3
  %10 = getelementptr inbounds nuw i8, ptr %9, i64 24
  %11 = load ptr, ptr %10, align 8
  tail call void %11(ptr noundef nonnull align 8 dereferenceable(12) %8) #9
  br label %_ZNSt10unique_ptrIN4LIEF2PE12DynamicFixupESt14default_deleteIS2_EEaSEOS5_.exit

_ZNSt10unique_ptrIN4LIEF2PE12DynamicFixupESt14default_deleteIS2_EEaSEOS5_.exit: ; preds = %2, %_ZNKSt14default_deleteIN4LIEF2PE12DynamicFixupEEclEPS2_.exit.i.i.i.i
  ret ptr %0
}